; Function Attrs: mustprogress nounwind uwtable
define hidden void @_ZN19TableRateStatistics6removeEv(ptr noundef nonnull align 8 dereferenceable(64) %0) local_unnamed_addr #2 align 2 {
  %2 = tail call noundef zeroext i1 @_ZN3Jfr12is_recordingEv() #8
  br i1 %2, label %3, label %6

3:                                                ; preds = %1
  %4 = getelementptr inbounds i8, ptr %0, i64 8
  %5 = tail call noundef i64 asm sideeffect "lock xaddq $0,($2)", "=r,0,r,~{cc},~{memory},~{dirflag},~{fpsr},~{flags}"(i64 1, ptr nonnull %4) #8, !srcloc !6
  br label %6

6:                                                ; preds = %3, %1
  ret void
}